target datalayout = "e-m:e-p270:32:32-p271:32:32-p272:64:64-i64:64-i128:128-f80:128-n8:16:32:64-S128"
target triple = "x86_64-pc-linux-gnu"

; Function Attrs: nounwind uwtable
define internal double @sys_getswitchinterval_impl(ptr noundef %0) #0 {
  %2 = alloca ptr, align 8
  store ptr %0, ptr %2, align 8, !tbaa !9
  %3 = call i64 @_PyEval_GetSwitchInterval()
  %4 = uitofp i64 %3 to double
  %5 = fmul double 0x3EB0C6F7A0B5ED8D, %4
  ret double %5
}

; Function Attrs: nounwind uwtable
define internal ptr @sys_getswitchinterval(ptr noundef %0, ptr noundef %1) #0 {
  %3 = alloca ptr, align 8
  %4 = alloca ptr, align 8
  %5 = alloca ptr, align 8
  %6 = alloca double, align 8
  store ptr %0, ptr %3, align 8, !tbaa !9
  store ptr %1, ptr %4, align 8, !tbaa !9
  call void @llvm.lifetime.start.p0(i64 8, ptr %5) #12
  store ptr null, ptr %5, align 8, !tbaa !9
  call void @llvm.lifetime.start.p0(i64 8, ptr %6) #12
  %7 = load ptr, ptr %3, align 8, !tbaa !9
  %8 = call double @sys_getswitchinterval_impl(ptr noundef %7)
  store double %8, ptr %6, align 8, !tbaa !280
  %9 = load double, ptr %6, align 8, !tbaa !280
  %10 = fcmp oeq double %9, -1.000000e+00
  br i1 %10, label %11, label %15

11:                                               ; preds = %2
  %12 = call ptr @PyErr_Occurred()
  %13 = icmp ne ptr %12, null
  br i1 %13, label %14, label %15

14:                                               ; preds = %11
  br label %18

15:                                               ; preds = %11, %2
  %16 = load double, ptr %6, align 8, !tbaa !280
  %17 = call ptr @PyFloat_FromDouble(double noundef %16)
  store ptr %17, ptr %5, align 8, !tbaa !9
  br label %18

18:                                               ; preds = %15, %14
  %19 = load ptr, ptr %5, align 8, !tbaa !9
  call void @llvm.lifetime.end.p0(i64 8, ptr %6) #12
  call void @llvm.lifetime.end.p0(i64 8, ptr %5) #12
  ret ptr %19
}